(dp1
S'output'
p2
S"<type 'exceptions.AttributeError'> 'Rows' object has no attribute 'heading'"
p3
sS'layer'
p4
S'/home/shriyansh/Academics/web2py/applications/Course_Portal/controllers/course.py'
p5
sS'code'
p6
S'import time,datetime\nimport random\n\nPOST_PER_PAGE=6\n\n@auth.requires_login()\ndef index():\n    #list the courses available for current year for registration\n    courses = []\n    page = request.args(0, cast=int, default=0)\n    start = page*POST_PER_PAGE\n    stop = start + POST_PER_PAGE\n    rows = db(db.course).select(limitby=(start, stop))\n    count = len(db(db.course).select())\n    for row in rows:\n      courses.append([row.name, row.faculty.first_name + " " +  row.faculty.last_name, row.id])\n    return locals()\n\n@auth.requires_login()\ndef index_search():\n    courses = []\n    page = request.args(0, cast=int, default=0)\n    start = page*POST_PER_PAGE\n    stop = start + POST_PER_PAGE\n    search_query = request.vars.search_courses\n    rows = db(db.course.name.like(\'%\'+search_query+\'%\')).select(limitby=(start, stop))\n    count = len(db(db.course.name.like(\'%\'+search_query+\'%\')).select())\n    for row in rows:\n        courses.append([row.name, row.faculty.first_name + " " +  row.faculty.last_name, row.id])\n    return locals()\n\n# @auth.requires_login()\n# def index():\n# \t#list the courses available for current year for registration\n# \tcourses = []\n# \trows = db(db.course).select()\n# \tfor row in rows:\n# \t\tcourses.append([row.name, row.faculty.first_name + " " +  row.faculty.last_name, row.id])\n# \treturn locals()\n\n@auth.requires_login()\ndef view():\n\tcourse_id = request.args(0)\n\trows = db(db.course.id ==course_id).select()\n\t#faculty = None\n\tif(len(rows) == 0):\n\t\tresponse.flash = "Invalid course"\n\telse:\n\t\tmessage = rows[0].name\n\t\tfaculty = rows[0].faculty.first_name + " " + rows[0].faculty.last_name\n\t\tcourse_description = rows[0].course_description\n\t\trows = db((db.course_registration.cid==course_id)&(db.course_registration.sid==auth.user.id)).select()\n\t\tif len(rows) == 0:\n\t\t\tregistered = 0\n\t\telse:\n\t\t\tregistered = 1\n\t\trows = db((db.course_ta.cid==course_id)&(db.course_ta.sid==auth.user.id)).select()\n\t\tif len(rows) == 0:\n\t\t\tis_ta = 0\n\t\telse:\n\t\t\tis_ta = 1\n\treturn locals()\n\n@auth.requires_login()\ndef register():\n\tcourse_id = request.args(0)\n\trows = db(db.course.id ==course_id).select()\n\t#faculty = None\n\tif(len(rows) == 0):\n\t\tresponse.flash = "Invalid course"\n\telse:\n\t\tdb.course_registration.insert(cid=course_id, sid=auth.user.id)\n\t\tdb.activity.insert(cid=course_id, sid=auth.user.id,\n\t\t\tdescription="You registered for "+rows[0].name+" course.",\n\t\t\tactivity_scope="student"\n\t\t\t)\n\t\tredirect(URL("course","main/"+str(course_id)))\n\treturn locals()\n\n@auth.requires_login()\ndef unregister():\n\tcourse_id = request.args(0)\n\trows = db(db.course.id ==course_id).select()\n\tif(len(rows) == 0):\n\t\tresponse.flash = "Invalid course"\n\telse:\n\t\tdb((db.course_registration.cid==course_id)&(db.course_registration.sid==auth.user.id)).delete()\n\t\tdb.activity.insert(cid=course_id, sid=auth.user.id,\n\t\t\tdescription="You left "+rows[0].name+" course.",\n\t\t\tactivity_scope="student"\n\t\t\t)\n\t\tredirect(URL("course","main/"+str(course_id)))\n\n\treturn locals()\n\n@auth.requires_login()\ndef ta_register():\n\tcourse_id = request.args(0)\n\trows = db(db.course.id ==course_id).select()\n\t#faculty = None\n\tif(len(rows) == 0):\n\t\tresponse.flash = "Invalid course"\n\telse:\n\t\tdb.course_ta.insert(cid=course_id, sid=auth.user.id)\n\t\t#adding activity\n\t\tdb.activity.insert(cid=course_id, sid=auth.user.id,\n\t\t\tdescription=auth.user.first_name+" "+auth.user.last_name+" requested for TAship for "+rows[0].name+" course.",\n\t\t\tactivity_scope="faculty"\n\t\t\t)\n\t\tdb.activity.insert(cid=course_id, sid=auth.user.id,\n\t\t\tdescription="You requested for TAship for "+rows[0].name+" course.",\n\t\t\tactivity_scope="student"\n\t\t\t)\n\t\tredirect(URL("course","main/"+str(course_id)))\n\treturn locals()\n\n@auth.requires_login()\ndef ta_unregister():\n\tcourse_id = request.args(0)\n\trows = db(db.course.id ==course_id).select()\n\tif(len(rows) == 0):\n\t\tresponse.flash = "Invalid course"\n\telse:\n\t\tdb((db.course_ta.cid==course_id)&(db.course_ta.sid==auth.user.id)).delete()\n\t\tdb.activity.insert(cid=course_id, sid=auth.user.id,\n\t\t\tdescription=auth.user.first_name+" "+auth.user.last_name+" left TAship for "+rows[0].name+" course.",\n\t\t\tactivity_scope="faculty"\n\t\t\t)\n\t\tdb.activity.insert(cid=course_id, sid=auth.user.id,\n\t\t\tdescription="You left TAship for "+rows[0].name+" course.",\n\t\t\tactivity_scope="student"\n\t\t\t)\n\t\tredirect(URL("course","main/"+str(course_id)))\n\treturn locals()\n\n@auth.requires_login()\ndef manage_course():\n\tcourse_id = request.args(0)\n\tta_requests = db((db.course_ta.cid == course_id)&(db.course_ta.approval == \'no\')).select()\n\tcourse_ta   = db((db.course_ta.cid == course_id)&(db.course_ta.approval == \'yes\')).select()\n\tif(len(ta_requests) == 0):\n\t\tcourses = db(db.course.id == course_id).select()\n\t\tmessage = courses[0].name#response.flash = "Invalid course"\n\telse:\n\t\tmessage = ta_requests[0].cid.name\n\treturn locals()\n\n@auth.requires_login()\ndef main():\n\tcourse_id = request.args(0)\n\trows = db(db.course.id ==course_id).select()\n\tif(len(rows) == 0):\n\t\tresponse.flash = "Invalid course"\n\telse:\n\t\thas_edit_access = 0\n\t\tmessage = rows[0].name\n\t\tfaculty = rows[0].faculty\n\t\tinstructor = rows[0].faculty.first_name + " " + rows[0].faculty.last_name\n\t\tcourse_description = rows[0].course_description\n\t\trows = db((db.course_registration.cid==course_id)&(db.course_registration.sid==auth.user.id)).select()\n\t\tif len(rows) == 0:\n\t\t\tregistered = 0\n\t\telse:\n\t\t\tregistered = 1\n\t\trows = db((db.course_ta.cid==course_id)&(db.course_ta.sid==auth.user.id)).select()\n\t\tif len(rows) == 0:\n\t\t\tis_ta = 0\n\t\telse:\n\t\t\tis_ta = 1\n\t\trows = db((db.course_ta.cid==course_id)&(db.course_ta.sid==auth.user.id)&(db.course_ta.approval==\'yes\')).select()\n\t\tif len(rows) == 0:\n\t\t\tis_ta_approved = 0\n\t\telse:\n\t\t\tis_ta_approved = 1\n\t\t\thas_edit_access = 1\n\t\trows = db((db.course_ta.cid==course_id)&(db.course_ta.sid==auth.user.id)&(db.course_ta.approval == \'yes\')).select()\n\t\tif( len(rows) == 1):\n\t\t\tta_approved = 1\n\t\telse:\n\t\t\tta_approved = 0\n\t\tif faculty == auth.user.id:\n\t\t\thas_edit_access = 1\n\n\t\t# if( registered == 0 and is_ta == 0 and faculty != auth.user.id):\n\t\t# \tredirect(URL("default","index"))\n\t\ttas = db((db.course_ta.cid == course_id)&(db.course_ta.approval == \'yes\')).select()\n\treturn locals()\n\n@auth.requires_login()\ndef approve_ta():\n\tif auth.user.role != "faculty":\n\t\treturn "invalid request"\n\tta_id =request.args(0)\n\tta_requests = db((db.course_ta.id == ta_id)).select()\n\tif(len(ta_requests) == 0):\n\t\tsession.flash = "Invalid TA"\n\telse:\n\t\tdb((db.course_ta.id == ta_id)).update(approval=\'yes\')\n\t\tdb.activity.insert(cid=ta_requests[0].cid, sid=auth.user.id,\n\t\t\tdescription=auth.user.first_name+" "+auth.user.last_name+" approved TAship request of "+ta_requests[0].sid.first_name+" "+ta_requests[0].sid.last_name+" for "+ta_requests[0].cid.name+" course.",\n\t\t\tactivity_scope="ta"\n\t\t\t)\n\t\tsession.flash = "TA request accepted successfully"\n\tredirect(URL("course","main/"+str(ta_requests[0].cid)))\n\treturn locals()\n\n@auth.requires_login()\ndef reject_ta():\n\tif auth.user.role != "faculty":\n\t\treturn "invalid request"\n\tta_id =request.args(0)\n\tta_requests = db((db.course_ta.id == ta_id)).select()\n\tif(len(ta_requests) == 0):\n\t\tsession.flash = "Invalid TA"\n\telse:\n\t\tdb((db.course_ta.id == ta_id)).delete()\n\t\tdb.activity.insert(cid=ta_requests[0].cid, sid=auth.user.id,\n\t\t\tdescription=auth.user.first_name+" "+auth.user.last_name+" rejected your TAship request for "+ta_requests[0].cid.name+" course.",\n\t\t\tactivity_scope="ta"\n\t\t\t)\n\t\tsession.flash = "TA request rejected successfully"\n\tredirect(URL("course","main/"+str(ta_requests[0].cid)))\n\treturn locals()\n\n@auth.requires_login()\ndef home():\n\tcourse_id = request.args(0)\n\tcourse = db(db.course.id == course_id).select()\n\tif(course and len(course) == 1):\n\t\tcourse_des = course[0].course_description\n\t\thas_edit_access = 0\n\t\tfaculty = course[0].faculty\n\t\trows = db((db.course_ta.cid==course_id)&(db.course_ta.sid==auth.user.id)&(db.course_ta.approval==\'yes\')).select()\n\t\tif len(rows) == 0:\n\t\t\tis_ta_approved = 0\n\t\telse:\n\t\t\tis_ta_approved = 1\n\t\t\thas_edit_access = 1\n\t\tif faculty == auth.user.id:\n\t\t\thas_edit_access = 1\n\telse:\n\t\tresponse.flash = "Invalid course"\n\treturn locals()\n\n@auth.requires_login()\ndef assignments():\n\tcourse_id = request.args(0)\n\tcourse = db(db.course.id == course_id).select()\n\tis_staff = 0\n\tif(len(course) == 0):\n\t\tresponse.flash = "Invalid course"\n\telse:\n\t\tif course[0].faculty == auth.user.id:\n\t\t\tis_staff = 1\n\t\telse:\n\t\t\tta_approved = db((db.course_ta.cid == course_id)&(db.course_ta.sid == auth.user.id)&(db.course_ta.approval==\'yes\')).select()\n\t\t\tif len(ta_approved) == 1:\n\t\t\t\tta_approved = 1\n\t\t\telse:\n\t\t\t\tta_approved = 0\n\t\tlinks = db(db.course_assignments.cid==course_id).select()\n\treturn locals()\n\n@auth.requires_login()\ndef upload_assignment():\n\tdata = request.vars\n\tcourse_id = request.args(0)\n\tcourse = db(db.course.id == course_id).select()\n\tif(len(course) == 0):\n\t\tresponse.flash = "Invalid course"\n\telse:\n\t\tdata = request.vars\n\t\tdb.course_assignments.insert(cid=course_id,sid=auth.user.id,attachment=data.assignment_file, title=data.assignment_name, deadline=data.assignment_deadline, total_marks=data.assignment_total_marks)\n\t\tdb.activity.insert(cid=course_id, sid=auth.user.id,\n\t\t\tdescription=auth.user.first_name+" "+auth.user.last_name+" uploaded new assignment, \\""+data.assignment_name+"\\" for "+course[0].name+" course.",\n\t\t\tactivity_scope="all"\n\t\t\t)\n\t\tsession.flash = "File uploaded successfully"\n\tredirect(URL(\'course\',\'main/\'+str(course_id)))\n\treturn locals()\n\n\n@auth.requires_login()\ndef upload_student_assignment():\n\tdata = request.vars\n\tcourse_id = request.args(0)\n\tcourse = db(db.course.id == course_id).select()\n\tif(len(course) == 0):\n\t\tresponse.flash = "Invalid course"\n\telse:\n\t\tdata = request.vars\n\t\trecent_uploads = db((db.course_assignment_upload.aid == data.assignment_id)&(db.course_assignment_upload.sid==auth.user.id)).select()\n\t\tif(len(recent_uploads) == 5):\n\t\t\tsession.flash = "Maximum upload limit exceeded"\n\t\telse:\n\t\t\tdb.course_assignment_upload.insert(aid=data.assignment_id,sid=auth.user.id,attachment=data.assignment_file)\n\t\t\tsession.flash = "File uploaded successfully"\n\tredirect(URL(\'course\',\'main/\'+str(course_id)))\n\treturn locals()\n\n@auth.requires_login()\ndef upload_resource():\n\tdata = request.vars\n\tcourse_id = request.args(0)\n\tcourse = db(db.course.id == course_id).select()\n\tif(len(course) == 0):\n\t\tresponse.flash = "Invalid course"\n\telse:\n\t\tdata = request.vars\n\t\tdb.course_resources.insert(cid=course_id,sid=auth.user.id,attachment=data.resource_file, title=data.resource_name)\n\t\tdb.activity.insert(cid=course_id, sid=auth.user.id,\n\t\t\tdescription=auth.user.first_name+" "+auth.user.last_name+" uploaded new resource, \\""+data.resource_name+"\\" for "+course[0].name+" course.",\n\t\t\tactivity_scope="all"\n\t\t\t)\n\t\tsession.flash = "File uploaded successfully"\n\tredirect(URL(\'course\',\'main/\'+str(course_id)))\n\treturn locals()\n\n@auth.requires_login()\ndef resources():\n\tcourse_id = request.args(0)\n\tcourse = db(db.course.id == course_id).select()\n\tis_staff = 0\n\tif(len(course) == 0):\n\t\tresponse.flash = "Invalid course"\n\telse:\n\t\tif course[0].faculty == auth.user.id:\n\t\t\tis_staff = 1\n\t\telse:\n\t\t\tta_approved = db((db.course_ta.cid == course_id)&(db.course_ta.sid == auth.user.id)&(db.course_ta.approval==\'yes\')).select()\n\t\t\tif len(ta_approved) == 1:\n\t\t\t\tta_approved = 1\n\t\t\telse:\n\t\t\t\tta_approved = 0\n\t\tlinks = db(db.course_resources.cid==course_id).select()\n\treturn locals()\n\n@auth.requires_login()\ndef upload():\n\tcourse_id = request.args(0)\n\tcourse = db(db.course.id == course_id).select()\n\tif(len(course) == 0):\n\t\tresponse.flash = "Invalid course"\n\telse:\n\t\tta_approved = db((db.course_ta.cid == course_id)&(db.course_ta.sid == auth.user.id)&(db.course_ta.approval==\'yes\')).select()\n\t\tif len(ta_approved) == 1 or auth.user.role == "faculty":\n\t\t\tta_approved = 1\n\t\telse:\n\t\t\tta_approved = 0\n\t\tassignments = db((db.course_assignments.deadline >= datetime.datetime.now())&(db.course_assignments.cid == course_id)).select()\n\t\tstaff_assignments = db((db.course_assignments.cid == course_id)).select()\n\treturn locals()\n\n@auth.requires_login()\ndef marks():\n\tcourse_id = request.args(0)\n\tcourse = db(db.course.id == course_id).select()\n\tif(len(course) == 0):\n\t\tresponse.flash = "Invalid course"\n\telse:\n\t\tcourse = course.first()\n\t\tif (course.faculty == auth.user.id):\n\t\t\tis_staff = 1\n\t\telse:\n\t\t\tcourse = db((db.course_ta.cid == course_id) & (db.course_ta.sid == auth.user.id) &(db.course_ta.approval == \'yes\')).select()\n\t\t\tif(len(course) == 1):\n\t\t\t\tis_staff = 1\n\t\t\telse:\n\t\t\t\tis_staff = 0\n\t\tif is_staff:\n\t\t\trows = db(db.course_registration.cid == course_id).select()\n\t\telse:\n\t\t\tcourse = db((db.course_registration.cid == course_id)&(db.course_registration.sid == auth.user.id)).select().first()\n\t\t\tif course.mid1 == -1:\n\t\t\t\tmid1_marks = "TBA"\n\t\t\telse:\n\t\t\t\tmid1_marks = str(course.mid1) +" / "+ course.cid.mid1_max\n\t\t\tif course.mid2 == -1:\n\t\t\t\tmid2_marks = "TBA"\n\t\t\telse:\n\t\t\t\tmid2_marks = str(course.mid2) +" / "+ course.cid.mid2_max\n\t\t\tif course.sem == -1:\n\t\t\t\tsem_marks = "TBA"\n\t\t\telse:\n\t\t\t\tsem_marks = str(course.sem) +" / "+ course.cid.sem_max\n\t\t\tassignments = [ i.id for i in db(db.course_assignments.cid == course_id).select()]\n\t\t\tassignments = db((db.course_assignment_upload.aid.belongs(assignments)) & (db.course_assignment_upload.sid == auth.user.id)).select(db.course_assignment_upload.aid,db.course_assignment_upload.id,db.course_assignment_upload.marks,db.course_assignment_upload.sid,db.course_assignment_upload.attachment,db.course_assignment_upload.upload_date.max(),groupby=db.course_assignment_upload.sid)\n\treturn locals()\n\n\n@auth.requires_login()\ndef activity():\n\tcourse_id = request.args(0)\n\tcourse = db(db.course.id == course_id).select()\n\tif(len(course) == 0):\n\t\tresponse.flash = "Invalid course"\n\telse:\n\t\tactivities = db((db.activity.cid==course_id)&(db.activity.activity_scope==\'all\')).select(orderby=~db.activity.publish_date,limitby=(0, 20))\n\treturn locals()\n\n\n@auth.requires_login()\ndef approvals():\n\tcourse_id = request.args(0)\n\tcourse = db(db.course.id == course_id).select()\n\tif(len(course) == 0):\n\t\tresponse.flash = "Invalid course"\n\telse:\n\t\tta_requests = db((db.course_ta.cid == course_id)&(db.course_ta.approval == \'no\')).select()\n\t\tcourse_ta   = db((db.course_ta.cid == course_id)&(db.course_ta.approval == \'yes\')).select()\n\treturn locals()\n\n@auth.requires_login()\ndef delete_assignment():\n\tassignment_id = request.args(0)\n\tassignment = db(db.course_assignments.id == assignment_id).select()\n\n\tif( len(assignment) == 0):\n\t\tsession.flash = "Invalid assignment"\n\telse:\n\t\tcourse_id = assignment.first().cid\n\t\tdb(db.course_assignments.id == assignment_id).delete()\n\t\tdb.activity.insert(cid=course_id, sid=auth.user.id,\n\t\t\tdescription=auth.user.first_name+" "+auth.user.last_name+" deleted assignment, \\""+assignment.first().title+"\\" for "+assignment.first().cid.name+" course.",\n\t\t\tactivity_scope="all"\n\t\t\t)\n\t\tsession.flash = "Assignment deleted successfully"\n\t\tredirect(URL(\'course\',\'main/\'+str(course_id)))\n\n@auth.requires_login()\ndef delete_resource():\n\tresource_id = request.args(0)\n\tresource = db(db.course_resources.id == resource_id).select()\n\tif( len(resource) == 0):\n\t\tsessions.flash = "Invalid resources"\n\telse:\n\t\tcourse_id = resource.first().cid\n\t\tdb.activity.insert(cid=course_id, sid=auth.user.id,\n\t\t\tdescription=auth.user.first_name+" "+auth.user.last_name+" deleted resource, \\""+resource.first().title+"\\" for "+resource.first().cid.name+" course.",\n\t\t\tactivity_scope="all"\n\t\t\t)\n\t\tdb(db.course_resources.id == resource_id).delete()\n\t\tsession.flash = "Resource deleted successfully"\n\t\tredirect(URL(\'course\',\'main/\'+str(course_id)))\n\n@auth.requires_login()\ndef view_student_uploads():\n\t#return str(request.vars)\n\tassignment_id = request.vars.assignment_upload_id\n\trows = db(db.course_assignment_upload.aid==assignment_id).select(db.course_assignment_upload.aid,db.course_assignment_upload.id,db.course_assignment_upload.marks,db.course_assignment_upload.sid,db.course_assignment_upload.attachment,db.course_assignment_upload.upload_date.max(),groupby=db.course_assignment_upload.sid)\n\treturn locals()\n\n@auth.requires_login()\ndef update_overview():\n\tcourse_id = request.args(0)\n\tcontent = XML(request.vars.hidediv)\n\tif db.course(course_id):\n\t\tdb(db.course.id == course_id).update(course_description=content);\n\t\treturn "alert(\'Content updated successfully\')";\n\telse:\n\t\treturn "alert(\'error\')";\n\n@auth.requires_login()\ndef update_assignment_marks():\n\tdata = request.vars\n\tfor key in data.keys():\n\t\ttry:\n\t\t\tdata[key] = float(data[key])\n\t\texcept :\n\t\t\treturn "alert(\'Invalid number\')";\n\t\t#if type(data[key]) != int and type(data[key]) != float:\n\tfor key in data.keys():\n\t\tdb(db.course_assignment_upload.id == key).update(marks=data[key]);\n\treturn "alert(\'Content updated successfully\')";\n\n@auth.requires_login()\ndef update_course_marks():\n\tdata = request.vars\n\tfor key in data.keys():\n\t\ttry:\n\t\t\tdata[key] = float(data[key])\n\t\texcept :\n\t\t\treturn "alert(\'Invalid number\')";\n\t\t#if type(data[key]) != int and type(data[key]) != float:\n\tfor key in data.keys():\n\t\tarr = key.split("-")\n\t\tif arr[0] == "mid1":\n\t\t\tdb(db.course_registration.id == arr[1]).update(mid1=data[key]);\n\t\telif arr[0] == "mid2":\n\t\t\tdb(db.course_registration.id == arr[1]).update(mid2=data[key]);\n\t\telif arr[0] == "sem":\n\t\t\tdb(db.course_registration.id == arr[1]).update(sem=data[key]);\n\treturn "alert(\'Content updated successfully\')";\n\n@auth.requires_login()\ndef feedback():\n\tdata = request.vars.feedback\n\tcourse_id = request.args(0)\n\tcourse = db.course(course_id)\n\tif(course and data):\n\t\tto_id = [course.faculty.email]\n\t\tto_id.append(\'adityagaykar@gmail.com\') #course.faculty.email\n\t\tsub = \'Course_Portal: Feedback from \'+auth.user.first_name+\' \'+auth.user.last_name+\' for course \'+course.name\n\t\tsub += \' [\' + request.vars.query + \']\'\n\t\tmail.send(to=to_id,subject=sub,message=data)\n\t\t#mail.send(to=[\'subash.k3110@gmail.com\'],subject=\'test\',message=\'hello\'):\n\t\treturn "alert(\'Feeback sent successfully.\')";\n\telse:\n\t\treturn "alert(\'Error: invalid args\')";\n\n\n@auth.requires_login()\ndef topic():\n\tcourse_id = request.args(0)\n\trows = db(db.topic2.cid == course_id).select()\n\tname =  auth.user.first_name +" "+ auth.user.last_name\n\treturn locals()\n\n@auth.requires_login()\ndef post():\n    # TODO add cid in the query too\n    topic_id = request.args(0)\n    topic = db(db.topic2.id == topic_id).select()\n    rows = db(db.post2.tid == topic_id).select()\n    heading = topic.heading\n    print heading,random.randint(0,10000),topic_id,topic\n\n    return locals()\n\nresponse._vars=response._caller(post)\n'
p7
sS'snapshot'
p8
(dp9
S'exception'
p10
(dp11
S'__hash__'
p12
S"<method-wrapper '__hash__' of exceptions.AttributeError object>"
p13
sS'__setattr__'
p14
S"<method-wrapper '__setattr__' of exceptions.AttributeError object>"
p15
sS'__reduce_ex__'
p16
S'<built-in method __reduce_ex__ of exceptions.AttributeError object>'
p17
sS'__getslice__'
p18
S"<method-wrapper '__getslice__' of exceptions.AttributeError object>"
p19
sS'__getitem__'
p20
S"<method-wrapper '__getitem__' of exceptions.AttributeError object>"
p21
sS'__setstate__'
p22
S'<built-in method __setstate__ of exceptions.AttributeError object>'
p23
sS'args'
p24
S'("\'Rows\' object has no attribute \'heading\'",)'
p25
sS'__reduce__'
p26
S'<built-in method __reduce__ of exceptions.AttributeError object>'
p27
sS'__str__'
p28
S"<method-wrapper '__str__' of exceptions.AttributeError object>"
p29
sS'__format__'
p30
S'<built-in method __format__ of exceptions.AttributeError object>'
p31
sS'__getattribute__'
p32
S"<method-wrapper '__getattribute__' of exceptions.AttributeError object>"
p33
sS'__class__'
p34
S"<type 'exceptions.AttributeError'>"
p35
sS'__unicode__'
p36
S'<built-in method __unicode__ of exceptions.AttributeError object>'
p37
sS'__delattr__'
p38
S"<method-wrapper '__delattr__' of exceptions.AttributeError object>"
p39
sS'__subclasshook__'
p40
S'<built-in method __subclasshook__ of type object>'
p41
sS'__repr__'
p42
S"<method-wrapper '__repr__' of exceptions.AttributeError object>"
p43
sS'__dict__'
p44
S'{}'
p45
sS'__sizeof__'
p46
S'<built-in method __sizeof__ of exceptions.AttributeError object>'
p47
sS'__doc__'
p48
S"'Attribute not found.'"
p49
sS'__init__'
p50
S"<method-wrapper '__init__' of exceptions.AttributeError object>"
p51
sS'__new__'
p52
S'<built-in method __new__ of type object>'
p53
ssS'evalue'
p54
S"'Rows' object has no attribute 'heading'"
p55
sS'request'
p56
cgluon.html
XML_unpickle
p57
(S's\xb3_\x00\x00<div><table><tr><td style="font-weight:bold;vertical-align:top;">ajax</td><td style="vertical-align:top;">:</td><td><div>True</div></td></tr><tr><td style="font-weight:bold;vertical-align:top;">application</td><td style="vertical-align:top;">:</td><td><div>Course_Portal</div></td></tr><tr><td style="font-weight:bold;vertical-align:top;">args</td><td style="vertical-align:top;">:</td><td><div><table><tr><td><div>1</div></td></tr></table></div></td></tr><tr><td style="font-weight:bold;vertical-align:top;">cid</td><td style="vertical-align:top;">:</td><td><div>None</div></td></tr><tr><td style="font-weight:bold;vertical-align:top;">client</td><td style="vertical-align:top;">:</td><td><div>127.0.0.1</div></td></tr><tr><td style="font-weight:bold;vertical-align:top;">controller</td><td style="vertical-align:top;">:</td><td><div>course</div></td></tr><tr><td style="font-weight:bold;vertical-align:top;">cookies</td><td style="vertical-align:top;">:</td><td><div><table><tr><td style="font-weight:bold;vertical-align:top;">session_id_admin</td><td style="vertical-align:top;">:</td><td><div>127.0.0.1-980675c7-6f2e-4346-922e-1eff1342ab67<table><tr><td style="font-weight:bold;vertical-align:top;">comment</td><td style="vertical-align:top;">:</td><td><div></div></td></tr><tr><td style="font-weight:bold;vertical-align:top;">domain</td><td style="vertical-align:top;">:</td><td><div></div></td></tr><tr><td style="font-weight:bold;vertical-align:top;">expires</td><td style="vertical-align:top;">:</td><td><div></div></td></tr><tr><td style="font-weight:bold;vertical-align:top;">httponly</td><td style="vertical-align:top;">:</td><td><div></div></td></tr><tr><td style="font-weight:bold;vertical-align:top;">max-age</td><td style="vertical-align:top;">:</td><td><div></div></td></tr><tr><td style="font-weight:bold;vertical-align:top;">path</td><td style="vertical-align:top;">:</td><td><div></div></td></tr><tr><td style="font-weight:bold;vertical-align:top;">secure</td><td style="vertical-align:top;">:</td><td><div></div></td></tr><tr><td style="font-weight:bold;vertical-align:top;">version</td><td style="vertical-align:top;">:</td><td><div></div></td></tr></table></div></td></tr><tr><td style="font-weight:bold;vertical-align:top;">session_id_course_portal</td><td style="vertical-align:top;">:</td><td><div>127.0.0.1-70645a4b-3f61-4720-87cb-eaf58bde9262<table><tr><td style="font-weight:bold;vertical-align:top;">comment</td><td style="vertical-align:top;">:</td><td><div></div></td></tr><tr><td style="font-weight:bold;vertical-align:top;">domain</td><td style="vertical-align:top;">:</td><td><div></div></td></tr><tr><td style="font-weight:bold;vertical-align:top;">expires</td><td style="vertical-align:top;">:</td><td><div></div></td></tr><tr><td style="font-weight:bold;vertical-align:top;">httponly</td><td style="vertical-align:top;">:</td><td><div></div></td></tr><tr><td style="font-weight:bold;vertical-align:top;">max-age</td><td style="vertical-align:top;">:</td><td><div></div></td></tr><tr><td style="font-weight:bold;vertical-align:top;">path</td><td style="vertical-align:top;">:</td><td><div></div></td></tr><tr><td style="font-weight:bold;vertical-align:top;">secure</td><td style="vertical-align:top;">:</td><td><div></div></td></tr><tr><td style="font-weight:bold;vertical-align:top;">version</td><td style="vertical-align:top;">:</td><td><div></div></td></tr></table></div></td></tr><tr><td style="font-weight:bold;vertical-align:top;">session_id_welcome</td><td style="vertical-align:top;">:</td><td><div>127.0.0.1-8fc4ec45-f13d-42b7-a00a-9edbbeca51b6<table><tr><td style="font-weight:bold;vertical-align:top;">comment</td><td style="vertical-align:top;">:</td><td><div></div></td></tr><tr><td style="font-weight:bold;vertical-align:top;">domain</td><td style="vertical-align:top;">:</td><td><div></div></td></tr><tr><td style="font-weight:bold;vertical-align:top;">expires</td><td style="vertical-align:top;">:</td><td><div></div></td></tr><tr><td style="font-weight:bold;vertical-align:top;">httponly</td><td style="vertical-align:top;">:</td><td><div></div></td></tr><tr><td style="font-weight:bold;vertical-align:top;">max-age</td><td style="vertical-align:top;">:</td><td><div></div></td></tr><tr><td style="font-weight:bold;vertical-align:top;">path</td><td style="vertical-align:top;">:</td><td><div></div></td></tr><tr><td style="font-weight:bold;vertical-align:top;">secure</td><td style="vertical-align:top;">:</td><td><div></div></td></tr><tr><td style="font-weight:bold;vertical-align:top;">version</td><td style="vertical-align:top;">:</td><td><div></div></td></tr></table></div></td></tr></table></div></td></tr><tr><td style="font-weight:bold;vertical-align:top;">env</td><td style="vertical-align:top;">:</td><td><div><table><tr><td style="font-weight:bold;vertical-align:top;">CONTENT_LENGTH</td><td style="vertical-align:top;">:</td><td><div>0</div></td></tr><tr><td style="font-weight:bold;vertical-align:top;">HTTP_ACCEPT</td><td style="vertical-align:top;">:</td><td><div>*/*</div></td></tr><tr><td style="font-weight:bold;vertical-align:top;">HTTP_ACCEPT_ENCODING</td><td style="vertical-align:top;">:</td><td><div>gzip, deflate</div></td></tr><tr><td style="font-weight:bold;vertical-align:top;">HTTP_ACCEPT_LANGUAGE</td><td style="vertical-align:top;">:</td><td><div>en-US,en;q=0.5</div></td></tr><tr><td style="font-weight:bold;vertical-align:top;">HTTP_CONNECTION</td><td style="vertical-align:top;">:</td><td><div>keep-alive</div></td></tr><tr><td style="font-weight:bold;vertical-align:top;">HTTP_CONTENT_LENGTH</td><td style="vertical-align:top;">:</td><td><div>0</div></td></tr><tr><td style="font-weight:bold;vertical-align:top;">HTTP_COOKIE</td><td style="vertical-align:top;">:</td><td><div>session_id_welcome=127.0.0.1-8fc4ec45-f13d-42b7-a00a-9edbbeca51b6; session_id_admin=127.0.0.1-980675c7-6f2e-4346-922e-1eff1342ab67; session_id_course_portal=127.0.0.1-70645a4b-3f61-4720-87cb-eaf58bde9262</div></td></tr><tr><td style="font-weight:bold;vertical-align:top;">HTTP_DNT</td><td style="vertical-align:top;">:</td><td><div>1</div></td></tr><tr><td style="font-weight:bold;vertical-align:top;">HTTP_HOST</td><td style="vertical-align:top;">:</td><td><div>127.0.0.1:8000</div></td></tr><tr><td style="font-weight:bold;vertical-align:top;">HTTP_REFERER</td><td style="vertical-align:top;">:</td><td><div>http://127.0.0.1:8000/Course_Portal/course/main/67</div></td></tr><tr><td style="font-weight:bold;vertical-align:top;">HTTP_USER_AGENT</td><td style="vertical-align:top;">:</td><td><div>Mozilla/5.0 (X11; Ubuntu; Linux x86_64; rv:52.0) Gecko/20100101 Firefox/52.0</div></td></tr><tr><td style="font-weight:bold;vertical-align:top;">HTTP_X_REQUESTED_WITH</td><td style="vertical-align:top;">:</td><td><div>XMLHttpRequest</div></td></tr><tr><td style="font-weight:bold;vertical-align:top;">PATH_INFO</td><td style="vertical-align:top;">:</td><td><div>/Course_Portal/course/post/1</div></td></tr><tr><td style="font-weight:bold;vertical-align:top;">QUERY_STRING</td><td style="vertical-align:top;">:</td><td><div></div></td></tr><tr><td style="font-weight:bold;vertical-align:top;">REMOTE_ADDR</td><td style="vertical-align:top;">:</td><td><div>127.0.0.1</div></td></tr><tr><td style="font-weight:bold;vertical-align:top;">REMOTE_PORT</td><td style="vertical-align:top;">:</td><td><div>34424</div></td></tr><tr><td style="font-weight:bold;vertical-align:top;">REQUEST_METHOD</td><td style="vertical-align:top;">:</td><td><div>POST</div></td></tr><tr><td style="font-weight:bold;vertical-align:top;">SCRIPT_NAME</td><td style="vertical-align:top;">:</td><td><div></div></td></tr><tr><td style="font-weight:bold;vertical-align:top;">SERVER_NAME</td><td style="vertical-align:top;">:</td><td><div>jarvis</div></td></tr><tr><td style="font-weight:bold;vertical-align:top;">SERVER_PORT</td><td style="vertical-align:top;">:</td><td><div>8000</div></td></tr><tr><td style="font-weight:bold;vertical-align:top;">SERVER_PROTOCOL</td><td style="vertical-align:top;">:</td><td><div>HTTP/1.1</div></td></tr><tr><td style="font-weight:bold;vertical-align:top;">SERVER_SOFTWARE</td><td style="vertical-align:top;">:</td><td><div>Rocket 1.2.6</div></td></tr><tr><td style="font-weight:bold;vertical-align:top;">app_folders</td><td style="vertical-align:top;">:</td><td><div>set([&#x27;/home/shriyansh/Academics/web2py/applications/admin/&#x27;, &#x27;/home/shriyansh/Academics/web2py/applications/welcome/&#x27;, &#x27;/home/shriyansh/Academics/web2py/applications/Course_Portal/&#x27;])</div></td></tr><tr><td style="font-weight:bold;vertical-align:top;">applications_parent</td><td style="vertical-align:top;">:</td><td><div>/home/shriyansh/Academics/web2py</div></td></tr><tr><td style="font-weight:bold;vertical-align:top;">cmd_args</td><td style="vertical-align:top;">:</td><td><div><table></table></div></td></tr><tr><td style="font-weight:bold;vertical-align:top;">cmd_options</td><td style="vertical-align:top;">:</td><td><div>&lt;Values at 0x7efd1b5007e8: {&#x27;verbose&#x27;: False, &#x27;ip&#x27;: &#x27;127.0.0.1&#x27;, &#x27;debuglevel&#x27;: 30, &#x27;with_scheduler&#x27;: False, &#x27;shutdown_timeout&#x27;: 5, &#x27;taskbar&#x27;: False, &#x27;with_coverage&#x27;: False, &#x27;pid_filename&#x27;: &#x27;httpserver.pid&#x27;, &#x27;maxthreads&#x27;: None, &#x27;softcron&#x27;: False, &#x27;server_name&#x27;: &#x27;jarvis&#x27;, &#x27;bpython&#x27;: False, &#x27;nogui&#x27;: False, &#x27;port&#x27;: 8000, &#x27;print_errors&#x27;: False, &#x27;extcron&#x27;: False, &#x27;runcron&#x27;: False, &#x27;run_system_tests&#x27;: False, &#x27;test&#x27;: None, &#x27;folder&#x27;: &#x27;/home/shriyansh/Academics/web2py&#x27;, &#x27;config&#x27;: &#x27;&#x27;, &#x27;minthreads&#x27;: None, &#x27;shell&#x27;: None, &#x27;run&#x27;: &#x27;&#x27;, &#x27;log_filename&#x27;: &#x27;httpserver.log&#x27;, &#x27;profiler_dir&#x27;: None, &#x27;args&#x27;: [&#x27;&#x27;], &#x27;socket_timeout&#x27;: 5, &#x27;ssl_ca_certificate&#x27;: None, &#x27;scheduler&#x27;: None, &#x27;interfaces&#x27;: None, &#x27;ssl_private_key&#x27;: &#x27;&#x27;, &#x27;gae&#x27;: None, &#x27;password&#x27;: &#x27;******&#x27;, &#x27;request_queue_size&#x27;: 5, &#x27;ssl_certificate&#x27;: &#x27;&#x27;, &#x27;cronjob&#x27;: False, &#x27;numthreads&#x27;: None, &#x27;quiet&#x27;: False, &#x27;import_models&#x27;: False, &#x27;timeout&#x27;: 10, &#x27;plain&#x27;: False, &#x27;nobanner&#x27;: False}&gt;</div></td></tr><tr><td style="font-weight:bold;vertical-align:top;">content_length</td><td style="vertical-align:top;">:</td><td><div>0</div></td></tr><tr><td style="font-weight:bold;vertical-align:top;">db_sessions</td><td style="vertical-align:top;">:</td><td><div>set([])</div></td></tr><tr><td style="font-weight:bold;vertical-align:top;">debugging</td><td style="vertical-align:top;">:</td><td><div>False</div></td></tr><tr><td style="font-weight:bold;vertical-align:top;">gluon_parent</td><td style="vertical-align:top;">:</td><td><div>/home/shriyansh/Academics/web2py</div></td></tr><tr><td style="font-weight:bold;vertical-align:top;">http_accept</td><td style="vertical-align:top;">:</td><td><div>*/*</div></td></tr><tr><td style="font-weight:bold;vertical-align:top;">http_accept_encoding</td><td style="vertical-align:top;">:</td><td><div>gzip, deflate</div></td></tr><tr><td style="font-weight:bold;vertical-align:top;">http_accept_language</td><td style="vertical-align:top;">:</td><td><div>en-US,en;q=0.5</div></td></tr><tr><td style="font-weight:bold;vertical-align:top;">http_connection</td><td style="vertical-align:top;">:</td><td><div>keep-alive</div></td></tr><tr><td style="font-weight:bold;vertical-align:top;">http_content_length</td><td style="vertical-align:top;">:</td><td><div>0</div></td></tr><tr><td style="font-weight:bold;vertical-align:top;">http_cookie</td><td style="vertical-align:top;">:</td><td><div>session_id_welcome=127.0.0.1-8fc4ec45-f13d-42b7-a00a-9edbbeca51b6; session_id_admin=127.0.0.1-980675c7-6f2e-4346-922e-1eff1342ab67; session_id_course_portal=127.0.0.1-70645a4b-3f61-4720-87cb-eaf58bde9262</div></td></tr><tr><td style="font-weight:bold;vertical-align:top;">http_dnt</td><td style="vertical-align:top;">:</td><td><div>1</div></td></tr><tr><td style="font-weight:bold;vertical-align:top;">http_host</td><td style="vertical-align:top;">:</td><td><div>127.0.0.1:8000</div></td></tr><tr><td style="font-weight:bold;vertical-align:top;">http_referer</td><td style="vertical-align:top;">:</td><td><div>http://127.0.0.1:8000/Course_Portal/course/main/67</div></td></tr><tr><td style="font-weight:bold;vertical-align:top;">http_user_agent</td><td style="vertical-align:top;">:</td><td><div>Mozilla/5.0 (X11; Ubuntu; Linux x86_64; rv:52.0) Gecko/20100101 Firefox/52.0</div></td></tr><tr><td style="font-weight:bold;vertical-align:top;">http_x_requested_with</td><td style="vertical-align:top;">:</td><td><div>XMLHttpRequest</div></td></tr><tr><td style="font-weight:bold;vertical-align:top;">is_jython</td><td style="vertical-align:top;">:</td><td><div>False</div></td></tr><tr><td style="font-weight:bold;vertical-align:top;">is_pypy</td><td style="vertical-align:top;">:</td><td><div>False</div></td></tr><tr><td style="font-weight:bold;vertical-align:top;">is_source</td><td style="vertical-align:top;">:</td><td><div>True</div></td></tr><tr><td style="font-weight:bold;vertical-align:top;">local_hosts</td><td style="vertical-align:top;">:</td><td><div><table><tr><td><div>10.1.40.128</div></td></tr><tr><td><div>fe80::b210:41ff:feb9:267f%wlp2s0</div></td></tr><tr><td><div>10.42.0.1</div></td></tr><tr><td><div>::ffff:127.0.0.1</div></td></tr><tr><td><div>::1</div></td></tr><tr><td><div>fe80::2ad2:44ff:fec8:dada%enp1s0</div></td></tr><tr><td><div>jarvis</div></td></tr><tr><td><div>127.0.0.1</div></td></tr></table></div></td></tr><tr><td style="font-weight:bold;vertical-align:top;">path_info</td><td style="vertical-align:top;">:</td><td><div>/Course_Portal/course/post/1</div></td></tr><tr><td style="font-weight:bold;vertical-align:top;">query_string</td><td style="vertical-align:top;">:</td><td><div></div></td></tr><tr><td style="font-weight:bold;vertical-align:top;">remote_addr</td><td style="vertical-align:top;">:</td><td><div>127.0.0.1</div></td></tr><tr><td style="font-weight:bold;vertical-align:top;">remote_port</td><td style="vertical-align:top;">:</td><td><div>34424</div></td></tr><tr><td style="font-weight:bold;vertical-align:top;">request_method</td><td style="vertical-align:top;">:</td><td><div>POST</div></td></tr><tr><td style="font-weight:bold;vertical-align:top;">request_uri</td><td style="vertical-align:top;">:</td><td><div>/Course_Portal/course/post/1</div></td></tr><tr><td style="font-weight:bold;vertical-align:top;">script_name</td><td style="vertical-align:top;">:</td><td><div></div></td></tr><tr><td style="font-weight:bold;vertical-align:top;">server_name</td><td style="vertical-align:top;">:</td><td><div>jarvis</div></td></tr><tr><td style="font-weight:bold;vertical-align:top;">server_port</td><td style="vertical-align:top;">:</td><td><div>8000</div></td></tr><tr><td style="font-weight:bold;vertical-align:top;">server_protocol</td><td style="vertical-align:top;">:</td><td><div>HTTP/1.1</div></td></tr><tr><td style="font-weight:bold;vertical-align:top;">server_software</td><td style="vertical-align:top;">:</td><td><div>Rocket 1.2.6</div></td></tr><tr><td style="font-weight:bold;vertical-align:top;">web2py_path</td><td style="vertical-align:top;">:</td><td><div>/home/shriyansh/Academics/web2py</div></td></tr><tr><td style="font-weight:bold;vertical-align:top;">web2py_version</td><td style="vertical-align:top;">:</td><td><div>2.14.6-stable+timestamp.2016.05.10.00.21.47</div></td></tr><tr><td style="font-weight:bold;vertical-align:top;">wsgi.errors</td><td style="vertical-align:top;">:</td><td><div>&lt;open file &#x27;&lt;stderr&gt;&#x27;, mode &#x27;w&#x27; at 0x7efd21ab21e0&gt;</div></td></tr><tr><td style="font-weight:bold;vertical-align:top;">wsgi.file_wrapper</td><td style="vertical-align:top;">:</td><td><div>&lt;class wsgiref.util.FileWrapper at 0x7efd1d89bc18&gt;</div></td></tr><tr><td style="font-weight:bold;vertical-align:top;">wsgi.input</td><td style="vertical-align:top;">:</td><td><div>&lt;socket._fileobject object at 0x7efd105d7ed0&gt;</div></td></tr><tr><td style="font-weight:bold;vertical-align:top;">wsgi.multiprocess</td><td style="vertical-align:top;">:</td><td><div>False</div></td></tr><tr><td style="font-weight:bold;vertical-align:top;">wsgi.multithread</td><td style="vertical-align:top;">:</td><td><div>True</div></td></tr><tr><td style="font-weight:bold;vertical-align:top;">wsgi.run_once</td><td style="vertical-align:top;">:</td><td><div>False</div></td></tr><tr><td style="font-weight:bold;vertical-align:top;">wsgi.url_scheme</td><td style="vertical-align:top;">:</td><td><div>http</div></td></tr><tr><td style="font-weight:bold;vertical-align:top;">wsgi.version</td><td style="vertical-align:top;">:</td><td><div><table><tr><td><div>1</div></td></tr><tr><td><div>0</div></td></tr></table></div></td></tr><tr><td style="font-weight:bold;vertical-align:top;">wsgi_errors</td><td style="vertical-align:top;">:</td><td><div>&lt;open file &#x27;&lt;stderr&gt;&#x27;, mode &#x27;w&#x27; at 0x7efd21ab21e0&gt;</div></td></tr><tr><td style="font-weight:bold;vertical-align:top;">wsgi_file_wrapper</td><td style="vertical-align:top;">:</td><td><div>&lt;class wsgiref.util.FileWrapper at 0x7efd1d89bc18&gt;</div></td></tr><tr><td style="font-weight:bold;vertical-align:top;">wsgi_input</td><td style="vertical-align:top;">:</td><td><div>&lt;socket._fileobject object at 0x7efd105d7ed0&gt;</div></td></tr><tr><td style="font-weight:bold;vertical-align:top;">wsgi_multiprocess</td><td style="vertical-align:top;">:</td><td><div>False</div></td></tr><tr><td style="font-weight:bold;vertical-align:top;">wsgi_multithread</td><td style="vertical-align:top;">:</td><td><div>True</div></td></tr><tr><td style="font-weight:bold;vertical-align:top;">wsgi_run_once</td><td style="vertical-align:top;">:</td><td><div>False</div></td></tr><tr><td style="font-weight:bold;vertical-align:top;">wsgi_url_scheme</td><td style="vertical-align:top;">:</td><td><div>http</div></td></tr><tr><td style="font-weight:bold;vertical-align:top;">wsgi_version</td><td style="vertical-align:top;">:</td><td><div><table><tr><td><div>1</div></td></tr><tr><td><div>0</div></td></tr></table></div></td></tr></table></div></td></tr><tr><td style="font-weight:bold;vertical-align:top;">extension</td><td style="vertical-align:top;">:</td><td><div>html</div></td></tr><tr><td style="font-weight:bold;vertical-align:top;">folder</td><td style="vertical-align:top;">:</td><td><div>/home/shriyansh/Academics/web2py/applications/Course_Portal/</div></td></tr><tr><td style="font-weight:bold;vertical-align:top;">function</td><td style="vertical-align:top;">:</td><td><div>post</div></td></tr><tr><td style="font-weight:bold;vertical-align:top;">global_settings</td><td style="vertical-align:top;">:</td><td><div><table><tr><td style="font-weight:bold;vertical-align:top;">app_folders</td><td style="vertical-align:top;">:</td><td><div>set([&#x27;/home/shriyansh/Academics/web2py/applications/admin/&#x27;, &#x27;/home/shriyansh/Academics/web2py/applications/welcome/&#x27;, &#x27;/home/shriyansh/Academics/web2py/applications/Course_Portal/&#x27;])</div></td></tr><tr><td style="font-weight:bold;vertical-align:top;">applications_parent</td><td style="vertical-align:top;">:</td><td><div>/home/shriyansh/Academics/web2py</div></td></tr><tr><td style="font-weight:bold;vertical-align:top;">cmd_args</td><td style="vertical-align:top;">:</td><td><div><table></table></div></td></tr><tr><td style="font-weight:bold;vertical-align:top;">cmd_options</td><td style="vertical-align:top;">:</td><td><div>&lt;Values at 0x7efd1b5007e8: {&#x27;verbose&#x27;: False, &#x27;ip&#x27;: &#x27;127.0.0.1&#x27;, &#x27;debuglevel&#x27;: 30, &#x27;with_scheduler&#x27;: False, &#x27;shutdown_timeout&#x27;: 5, &#x27;taskbar&#x27;: False, &#x27;with_coverage&#x27;: False, &#x27;pid_filename&#x27;: &#x27;httpserver.pid&#x27;, &#x27;maxthreads&#x27;: None, &#x27;softcron&#x27;: False, &#x27;server_name&#x27;: &#x27;jarvis&#x27;, &#x27;bpython&#x27;: False, &#x27;nogui&#x27;: False, &#x27;port&#x27;: 8000, &#x27;print_errors&#x27;: False, &#x27;extcron&#x27;: False, &#x27;runcron&#x27;: False, &#x27;run_system_tests&#x27;: False, &#x27;test&#x27;: None, &#x27;folder&#x27;: &#x27;/home/shriyansh/Academics/web2py&#x27;, &#x27;config&#x27;: &#x27;&#x27;, &#x27;minthreads&#x27;: None, &#x27;shell&#x27;: None, &#x27;run&#x27;: &#x27;&#x27;, &#x27;log_filename&#x27;: &#x27;httpserver.log&#x27;, &#x27;profiler_dir&#x27;: None, &#x27;args&#x27;: [&#x27;&#x27;], &#x27;socket_timeout&#x27;: 5, &#x27;ssl_ca_certificate&#x27;: None, &#x27;scheduler&#x27;: None, &#x27;interfaces&#x27;: None, &#x27;ssl_private_key&#x27;: &#x27;&#x27;, &#x27;gae&#x27;: None, &#x27;password&#x27;: &#x27;******&#x27;, &#x27;request_queue_size&#x27;: 5, &#x27;ssl_certificate&#x27;: &#x27;&#x27;, &#x27;cronjob&#x27;: False, &#x27;numthreads&#x27;: None, &#x27;quiet&#x27;: False, &#x27;import_models&#x27;: False, &#x27;timeout&#x27;: 10, &#x27;plain&#x27;: False, &#x27;nobanner&#x27;: False}&gt;</div></td></tr><tr><td style="font-weight:bold;vertical-align:top;">db_sessions</td><td style="vertical-align:top;">:</td><td><div>set([])</div></td></tr><tr><td style="font-weight:bold;vertical-align:top;">debugging</td><td style="vertical-align:top;">:</td><td><div>False</div></td></tr><tr><td style="font-weight:bold;vertical-align:top;">gluon_parent</td><td style="vertical-align:top;">:</td><td><div>/home/shriyansh/Academics/web2py</div></td></tr><tr><td style="font-weight:bold;vertical-align:top;">is_jython</td><td style="vertical-align:top;">:</td><td><div>False</div></td></tr><tr><td style="font-weight:bold;vertical-align:top;">is_pypy</td><td style="vertical-align:top;">:</td><td><div>False</div></td></tr><tr><td style="font-weight:bold;vertical-align:top;">is_source</td><td style="vertical-align:top;">:</td><td><div>True</div></td></tr><tr><td style="font-weight:bold;vertical-align:top;">local_hosts</td><td style="vertical-align:top;">:</td><td><div><table><tr><td><div>10.1.40.128</div></td></tr><tr><td><div>fe80::b210:41ff:feb9:267f%wlp2s0</div></td></tr><tr><td><div>10.42.0.1</div></td></tr><tr><td><div>::ffff:127.0.0.1</div></td></tr><tr><td><div>::1</div></td></tr><tr><td><div>fe80::2ad2:44ff:fec8:dada%enp1s0</div></td></tr><tr><td><div>jarvis</div></td></tr><tr><td><div>127.0.0.1</div></td></tr></table></div></td></tr><tr><td style="font-weight:bold;vertical-align:top;">web2py_version</td><td style="vertical-align:top;">:</td><td><div>2.14.6-stable+timestamp.2016.05.10.00.21.47</div></td></tr></table></div></td></tr><tr><td style="font-weight:bold;vertical-align:top;">is_https</td><td style="vertical-align:top;">:</td><td><div>False</div></td></tr><tr><td style="font-weight:bold;vertical-align:top;">is_local</td><td style="vertical-align:top;">:</td><td><div>True</div></td></tr><tr><td style="font-weight:bold;vertical-align:top;">is_restful</td><td style="vertical-align:top;">:</td><td><div>False</div></td></tr><tr><td style="font-weight:bold;vertical-align:top;">is_scheduler</td><td style="vertical-align:top;">:</td><td><div>False</div></td></tr><tr><td style="font-weight:bold;vertical-align:top;">is_shell</td><td style="vertical-align:top;">:</td><td><div>False</div></td></tr><tr><td style="font-weight:bold;vertical-align:top;">now</td><td style="vertical-align:top;">:</td><td><div>datetime.datetime(2017, 4, 9, 22, 58, 58, 358454)</div></td></tr><tr><td style="font-weight:bold;vertical-align:top;">raw_args</td><td style="vertical-align:top;">:</td><td><div>1</div></td></tr><tr><td style="font-weight:bold;vertical-align:top;">raw_extension</td><td style="vertical-align:top;">:</td><td><div>None</div></td></tr><tr><td style="font-weight:bold;vertical-align:top;">url</td><td style="vertical-align:top;">:</td><td><div>/Course_Portal/course/post/1</div></td></tr><tr><td style="font-weight:bold;vertical-align:top;">utcnow</td><td style="vertical-align:top;">:</td><td><div>datetime.datetime(2017, 4, 9, 17, 28, 58, 358472)</div></td></tr><tr><td style="font-weight:bold;vertical-align:top;">wsgi</td><td style="vertical-align:top;">:</td><td><div>&lt;gluon.main.LazyWSGI object at 0x7efd103eb310&gt;</div></td></tr></table></div>'
tRp58
sS'frames'
p59
(lp60
(dp61
S'file'
p62
S'/home/shriyansh/Academics/web2py/gluon/restricted.py'
p63
sS'dump'
p64
(dp65
S'environment'
p66
S"{'A': <class 'gluon.html.A'>, 'ANY_OF': <class 'gluon.validators.ANY_OF'>, 'ASSIGNJS': <function ASSIGNJS>, 'AppConfig': <function AppConfig>, 'Auth': <class 'gluon.tools.Auth'>, 'B': <class 'gluon.html.B'>, 'BEAUTIFY': <class 'gluon.html.BEAUTIFY'>, 'BODY': <class 'gluon.html.BODY'>, 'BR': <class 'gluon.html.BR'>, 'BUTTON': <class 'gluon.html.BUTTON'>, ...}"
p67
sS'ccode'
p68
S'<code object <module> at 0x7efd100b13b0, file "/...ons/Course_Portal/controllers/course.py", line 1>'
p69
ssS'lnum'
p70
I227
sS'lines'
p71
(dp72
I224
S'            ccode = code'
p73
sI225
S'        else:'
p74
sI226
S'            ccode = compile2(code, layer)'
p75
sI227
S'        exec ccode in environment'
p76
sI228
S'    except HTTP:'
p77
sI229
S'        raise'
p78
sI230
S'    except RestrictedError:'
p79
sI231
S'        # do not encapsulate (obfuscate) the original RestrictedError'
p80
sI222
S'    try:'
p81
sI223
S'        if isinstance(code, types.CodeType):'
p82
ssS'call'
p83
S"(code='import time,datetime\\nimport random\\n\\nPOST_PER_PAG... locals()\\n\\nresponse._vars=response._caller(post)\\n', environment={'A': <class 'gluon.html.A'>, 'ANY_OF': <class 'gluon.validators.ANY_OF'>, 'ASSIGNJS': <function ASSIGNJS>, 'AppConfig': <function AppConfig>, 'Auth': <class 'gluon.tools.Auth'>, 'B': <class 'gluon.html.B'>, 'BEAUTIFY': <class 'gluon.html.BEAUTIFY'>, 'BODY': <class 'gluon.html.BODY'>, 'BR': <class 'gluon.html.BR'>, 'BUTTON': <class 'gluon.html.BUTTON'>, ...}, layer='/home/shriyansh/Academics/web2py/applications/Course_Portal/controllers/course.py')"
p84
sS'func'
p85
S'restricted'
p86
sa(dp87
g62
S'/home/shriyansh/Academics/web2py/applications/Course_Portal/controllers/course.py'
p88
sg64
(dp89
sg70
I530
sg71
(dp90
I519
S'@auth.requires_login()'
p91
sI520
S'def post():'
p92
sI521
S'    # TODO add cid in the query too'
p93
sI522
S'    topic_id = request.args(0)'
p94
sI523
S'    topic = db(db.topic2.id == topic_id).select()'
p95
sI524
S'    rows = db(db.post2.tid == topic_id).select()'
p96
sI525
S'    heading = topic.heading'
p97
sI526
S'    print heading,random.randint(0,10000),topic_id,topic'
p98
sI527
S''
sI528
S'    return locals()'
p99
ssg83
S'()'
p100
sg85
S'<module>'
p101
sa(dp102
g62
S'/home/shriyansh/Academics/web2py/gluon/globals.py'
p103
sg64
(dp104
S'self'
p105
S'undefined'
p106
sS'f'
S'<function post>'
p107
ssg70
I417
sg71
(dp108
I416
S'        self._vars = None'
p109
sI417
S'        self._caller = lambda f: f()'
p110
sI418
S'        self._view_environment = None'
p111
sI419
S'        self._custom_commit = None'
p112
sI420
S'        self._custom_rollback = None'
p113
sI421
S"        self.generic_patterns = ['*']"
p114
sI412
S"        self.flash = ''            # used by the default view layout"
p115
sI413
S'        self.meta = Storage()      # used by web2py_ajax.html'
p116
sI414
S'        self.menu = []             # used by the default view layout'
p117
sI415
S'        self.files = []            # used by web2py_ajax.html'
p118
ssg83
S'(f=<function post>)'
p119
sg85
S'<lambda>'
p120
sa(dp121
g62
S'/home/shriyansh/Academics/web2py/gluon/tools.py'
p122
sg64
(dp123
S'action'
p124
S'<function post>'
p125
sS'a'
S'()'
p126
sS'b'
g45
ssg70
I4241
sg71
(dp127
I4236
S'                    flag = condition'
p128
sI4237
S'                if not flag:'
p129
sI4238
S'                    current.session.flash = self.messages.access_denied'
p130
sI4239
S'                    return call_or_redirect('
p131
sI4240
S'                        self.settings.on_failed_authorization)'
p132
sI4241
S'                return action(*a, **b)'
p133
sI4242
S'            f.__doc__ = action.__doc__'
p134
sI4243
S'            f.__name__ = action.__name__'
p135
sI4244
S'            f.__dict__.update(action.__dict__)'
p136
sI4245
S'            return f'
p137
ssg83
S'(*a=(), **b={})'
p138
sg85
S'f'
sa(dp139
g62
S'/home/shriyansh/Academics/web2py/applications/Course_Portal/controllers/course.py'
p140
sg64
(dp141
S'topic'
p142
S'<Rows (1)>'
p143
sS'topic.heading'
p144
g106
sS'heading'
p145
g106
ssg70
I525
sg71
(dp146
I519
S'@auth.requires_login()'
p147
sI520
S'def post():'
p148
sI521
S'    # TODO add cid in the query too'
p149
sI522
S'    topic_id = request.args(0)'
p150
sI523
S'    topic = db(db.topic2.id == topic_id).select()'
p151
sI524
S'    rows = db(db.post2.tid == topic_id).select()'
p152
sI525
S'    heading = topic.heading'
p153
sI526
S'    print heading,random.randint(0,10000),topic_id,topic'
p154
sI527
S''
sI528
S'    return locals()'
p155
ssg83
S'()'
p156
sg85
S'post'
p157
sasS'pyver'
p158
S'Python 2.7.12: /usr/bin/python (prefix: /usr)'
p159
sS'session'
p160
g57
(S's\xa6\x0b\x00\x00<div><table><tr><td style="font-weight:bold;vertical-align:top;">auth</td><td style="vertical-align:top;">:</td><td><div><table><tr><td style="font-weight:bold;vertical-align:top;">expiration</td><td style="vertical-align:top;">:</td><td><div>3600</div></td></tr><tr><td style="font-weight:bold;vertical-align:top;">hmac_key</td><td style="vertical-align:top;">:</td><td><div>8c916d02-7a32-4963-bda3-ebb23098375f</div></td></tr><tr><td style="font-weight:bold;vertical-align:top;">last_visit</td><td style="vertical-align:top;">:</td><td><div>datetime.datetime(2017, 4, 9, 22, 55, 35, 687054)</div></td></tr><tr><td style="font-weight:bold;vertical-align:top;">remember_me</td><td style="vertical-align:top;">:</td><td><div>False</div></td></tr><tr><td style="font-weight:bold;vertical-align:top;">user</td><td style="vertical-align:top;">:</td><td><div><table><tr><td style="font-weight:bold;vertical-align:top;">admin_verified</td><td style="vertical-align:top;">:</td><td><div>no</div></td></tr><tr><td style="font-weight:bold;vertical-align:top;">email</td><td style="vertical-align:top;">:</td><td><div>athresh.g@students.iiit.ac.in</div></td></tr><tr><td style="font-weight:bold;vertical-align:top;">first_name</td><td style="vertical-align:top;">:</td><td><div>Athresh</div></td></tr><tr><td style="font-weight:bold;vertical-align:top;">gender</td><td style="vertical-align:top;">:</td><td><div>Male</div></td></tr><tr><td style="font-weight:bold;vertical-align:top;">id</td><td style="vertical-align:top;">:</td><td><div>20L</div></td></tr><tr><td style="font-weight:bold;vertical-align:top;">last_name</td><td style="vertical-align:top;">:</td><td><div>Navada</div></td></tr><tr><td style="font-weight:bold;vertical-align:top;">registration_id</td><td style="vertical-align:top;">:</td><td><div></div></td></tr><tr><td style="font-weight:bold;vertical-align:top;">registration_key</td><td style="vertical-align:top;">:</td><td><div></div></td></tr><tr><td style="font-weight:bold;vertical-align:top;">reset_password_key</td><td style="vertical-align:top;">:</td><td><div></div></td></tr><tr><td style="font-weight:bold;vertical-align:top;">role</td><td style="vertical-align:top;">:</td><td><div>student</div></td></tr></table></div></td></tr><tr><td style="font-weight:bold;vertical-align:top;">user_groups</td><td style="vertical-align:top;">:</td><td><div><table><tr><td style="font-weight:bold;vertical-align:top;">10</td><td style="vertical-align:top;">:</td><td><div>user_20</div></td></tr></table></div></td></tr></table></div></td></tr><tr><td style="font-weight:bold;vertical-align:top;">flash</td><td style="vertical-align:top;">:</td><td><div>None</div></td></tr><tr><td style="font-weight:bold;vertical-align:top;">last_orderby</td><td style="vertical-align:top;">:</td><td><div>None</div></td></tr><tr><td style="font-weight:bold;vertical-align:top;">last_query</td><td style="vertical-align:top;">:</td><td><div>db.topic2.id&gt;0</div></td></tr></table></div>'
tRp161
sS'etype'
p162
S"<type 'exceptions.AttributeError'>"
p163
sS'date'
p164
S'Sun Apr  9 22:58:58 2017'
p165
sS'response'
p166
g57
(S's4\x1e\x00\x00<div><table><tr><td style="font-weight:bold;vertical-align:top;">body</td><td style="vertical-align:top;">:</td><td><div>&lt;cStringIO.StringO object at 0x7efd104280a0&gt;</div></td></tr><tr><td style="font-weight:bold;vertical-align:top;">cookies</td><td style="vertical-align:top;">:</td><td><div><table><tr><td style="font-weight:bold;vertical-align:top;">session_id_course_portal</td><td style="vertical-align:top;">:</td><td><div>127.0.0.1-70645a4b-3f61-4720-87cb-eaf58bde9262<table><tr><td style="font-weight:bold;vertical-align:top;">comment</td><td style="vertical-align:top;">:</td><td><div></div></td></tr><tr><td style="font-weight:bold;vertical-align:top;">domain</td><td style="vertical-align:top;">:</td><td><div></div></td></tr><tr><td style="font-weight:bold;vertical-align:top;">expires</td><td style="vertical-align:top;">:</td><td><div></div></td></tr><tr><td style="font-weight:bold;vertical-align:top;">httponly</td><td style="vertical-align:top;">:</td><td><div></div></td></tr><tr><td style="font-weight:bold;vertical-align:top;">max-age</td><td style="vertical-align:top;">:</td><td><div></div></td></tr><tr><td style="font-weight:bold;vertical-align:top;">path</td><td style="vertical-align:top;">:</td><td><div>/</div></td></tr><tr><td style="font-weight:bold;vertical-align:top;">secure</td><td style="vertical-align:top;">:</td><td><div></div></td></tr><tr><td style="font-weight:bold;vertical-align:top;">version</td><td style="vertical-align:top;">:</td><td><div></div></td></tr></table></div></td></tr></table></div></td></tr><tr><td style="font-weight:bold;vertical-align:top;">delimiters</td><td style="vertical-align:top;">:</td><td><div><table><tr><td><div>{{</div></td></tr><tr><td><div>}}</div></td></tr></table></div></td></tr><tr><td style="font-weight:bold;vertical-align:top;">files</td><td style="vertical-align:top;">:</td><td><div><table></table></div></td></tr><tr><td style="font-weight:bold;vertical-align:top;">flash</td><td style="vertical-align:top;">:</td><td><div></div></td></tr><tr><td style="font-weight:bold;vertical-align:top;">form_label_separator</td><td style="vertical-align:top;">:</td><td><div></div></td></tr><tr><td style="font-weight:bold;vertical-align:top;">formstyle</td><td style="vertical-align:top;">:</td><td><div>bootstrap3_inline</div></td></tr><tr><td style="font-weight:bold;vertical-align:top;">generic_patterns</td><td style="vertical-align:top;">:</td><td><div><table><tr><td><div>*</div></td></tr></table></div></td></tr><tr><td style="font-weight:bold;vertical-align:top;">google_analytics_id</td><td style="vertical-align:top;">:</td><td><div>None</div></td></tr><tr><td style="font-weight:bold;vertical-align:top;">headers</td><td style="vertical-align:top;">:</td><td><div><table><tr><td style="font-weight:bold;vertical-align:top;">X-Powered-By</td><td style="vertical-align:top;">:</td><td><div>web2py</div></td></tr></table></div></td></tr><tr><td style="font-weight:bold;vertical-align:top;">logo</td><td style="vertical-align:top;">:</td><td><div><a class="navbar-brand" href="/Course_Portal/default/index" id="web2py-logo"><b>Course Portal</b>&trade;&nbsp;</a></div></td></tr><tr><td style="font-weight:bold;vertical-align:top;">menu</td><td style="vertical-align:top;">:</td><td><div><table><tr><td><div><table><tr><td><div>Home</div></td></tr><tr><td><div>False</div></td></tr><tr><td><div>/Course_Portal/default/index</div></td></tr><tr><td><div><table></table></div></td></tr></table></div></td></tr><tr><td><div><table><tr><td><div>Courses</div></td></tr><tr><td><div>False</div></td></tr><tr><td><div>/Course_Portal/course/index</div></td></tr><tr><td><div><table></table></div></td></tr></table></div></td></tr></table></div></td></tr><tr><td style="font-weight:bold;vertical-align:top;">meta</td><td style="vertical-align:top;">:</td><td><div><table><tr><td style="font-weight:bold;vertical-align:top;">author</td><td style="vertical-align:top;">:</td><td><div>Your Name &lt;you@example.com&gt;</div></td></tr><tr><td style="font-weight:bold;vertical-align:top;">description</td><td style="vertical-align:top;">:</td><td><div>a cool new app</div></td></tr><tr><td style="font-weight:bold;vertical-align:top;">generator</td><td style="vertical-align:top;">:</td><td><div>Web2py Web Framework</div></td></tr><tr><td style="font-weight:bold;vertical-align:top;">keywords</td><td style="vertical-align:top;">:</td><td><div>web2py, python, framework</div></td></tr></table></div></td></tr><tr><td style="font-weight:bold;vertical-align:top;">models_to_run</td><td style="vertical-align:top;">:</td><td><div><table><tr><td><div>^\\w+\\.py$</div></td></tr><tr><td><div>^course/\\w+\\.py$</div></td></tr><tr><td><div>^course/post/\\w+\\.py$</div></td></tr></table></div></td></tr><tr><td style="font-weight:bold;vertical-align:top;">postprocessing</td><td style="vertical-align:top;">:</td><td><div><table></table></div></td></tr><tr><td style="font-weight:bold;vertical-align:top;">session_client</td><td style="vertical-align:top;">:</td><td><div>127.0.0.1</div></td></tr><tr><td style="font-weight:bold;vertical-align:top;">session_cookie_compression_level</td><td style="vertical-align:top;">:</td><td><div>None</div></td></tr><tr><td style="font-weight:bold;vertical-align:top;">session_cookie_expires</td><td style="vertical-align:top;">:</td><td><div>None</div></td></tr><tr><td style="font-weight:bold;vertical-align:top;">session_data_name</td><td style="vertical-align:top;">:</td><td><div>session_data_course_portal</div></td></tr><tr><td style="font-weight:bold;vertical-align:top;">session_file</td><td style="vertical-align:top;">:</td><td><div>&lt;open file &#x27;/home/shriyansh/Academics/web2py/applications/Course_Portal/sessions/162/025/127.0.0.1-70645a4b-3f61-4720-87cb-eaf58bde9262&#x27;, mode &#x27;rb+&#x27; at 0x7efd10177660&gt;</div></td></tr><tr><td style="font-weight:bold;vertical-align:top;">session_filename</td><td style="vertical-align:top;">:</td><td><div>/home/shriyansh/Academics/web2py/applications/Course_Portal/sessions/127.0.0.1-70645a4b-3f61-4720-87cb-eaf58bde9262</div></td></tr><tr><td style="font-weight:bold;vertical-align:top;">session_hash</td><td style="vertical-align:top;">:</td><td><div>c04c59be3297b721d7081770d1ba736c</div></td></tr><tr><td style="font-weight:bold;vertical-align:top;">session_id</td><td style="vertical-align:top;">:</td><td><div>127.0.0.1-70645a4b-3f61-4720-87cb-eaf58bde9262</div></td></tr><tr><td style="font-weight:bold;vertical-align:top;">session_id_name</td><td style="vertical-align:top;">:</td><td><div>session_id_course_portal</div></td></tr><tr><td style="font-weight:bold;vertical-align:top;">session_locked</td><td style="vertical-align:top;">:</td><td><div>True</div></td></tr><tr><td style="font-weight:bold;vertical-align:top;">session_masterapp</td><td style="vertical-align:top;">:</td><td><div>Course_Portal</div></td></tr><tr><td style="font-weight:bold;vertical-align:top;">session_new</td><td style="vertical-align:top;">:</td><td><div>False</div></td></tr><tr><td style="font-weight:bold;vertical-align:top;">session_storage_type</td><td style="vertical-align:top;">:</td><td><div>file</div></td></tr><tr><td style="font-weight:bold;vertical-align:top;">status</td><td style="vertical-align:top;">:</td><td><div>200</div></td></tr><tr><td style="font-weight:bold;vertical-align:top;">subtitle</td><td style="vertical-align:top;">:</td><td><div></div></td></tr><tr><td style="font-weight:bold;vertical-align:top;">title</td><td style="vertical-align:top;">:</td><td><div>Course Portal</div></td></tr><tr><td style="font-weight:bold;vertical-align:top;">view</td><td style="vertical-align:top;">:</td><td><div>course/post.html</div></td></tr></table></div>'
tRp167
sS'locals'
p168
(dp169
S'topic'
p170
S'<Rows (1)>'
p171
sS'rows'
p172
S'<Rows (1)>'
p173
sS'topic_id'
p174
S"'1'"
p175
sssS'traceback'
p176
S'Traceback (most recent call last):\n  File "/home/shriyansh/Academics/web2py/gluon/restricted.py", line 227, in restricted\n    exec ccode in environment\n  File "/home/shriyansh/Academics/web2py/applications/Course_Portal/controllers/course.py", line 530, in <module>\n  File "/home/shriyansh/Academics/web2py/gluon/globals.py", line 417, in <lambda>\n    self._caller = lambda f: f()\n  File "/home/shriyansh/Academics/web2py/gluon/tools.py", line 4241, in f\n    return action(*a, **b)\n  File "/home/shriyansh/Academics/web2py/applications/Course_Portal/controllers/course.py", line 525, in post\n    heading = topic.heading\nAttributeError: \'Rows\' object has no attribute \'heading\'\n'
p177
s.